target datalayout = "e-m:e-p270:32:32-p271:32:32-p272:64:64-i64:64-i128:128-f80:128-n8:16:32:64-S128"
target triple = "x86_64-unknown-linux-gnu"

%"class.std::set.0" = type { %"class.std::_Rb_tree.1" }
%"class.std::_Rb_tree.1" = type { %"struct.std::_Rb_tree<QuantLib::Observer *, QuantLib::Observer *, std::_Identity<QuantLib::Observer *>, std::less<QuantLib::Observer *>>::_Rb_tree_impl" }
%"struct.std::_Rb_tree<QuantLib::Observer *, QuantLib::Observer *, std::_Identity<QuantLib::Observer *>, std::less<QuantLib::Observer *>>::_Rb_tree_impl" = type { [8 x i8], %"struct.std::_Rb_tree_header" }
%"struct.std::_Rb_tree_header" = type { %"struct.std::_Rb_tree_node_base", i64 }
%"struct.std::_Rb_tree_node_base" = type { i32, ptr, ptr, ptr }
%"class.std::set" = type { %"class.std::_Rb_tree" }
%"class.std::_Rb_tree" = type { %"struct.std::_Rb_tree<boost::shared_ptr<QuantLib::Observable>, boost::shared_ptr<QuantLib::Observable>, std::_Identity<boost::shared_ptr<QuantLib::Observable>>, std::less<boost::shared_ptr<QuantLib::Observable>>>::_Rb_tree_impl" }
%"struct.std::_Rb_tree<boost::shared_ptr<QuantLib::Observable>, boost::shared_ptr<QuantLib::Observable>, std::_Identity<boost::shared_ptr<QuantLib::Observable>>, std::less<boost::shared_ptr<QuantLib::Observable>>>::_Rb_tree_impl" = type { [8 x i8], %"struct.std::_Rb_tree_header" }
%"class.boost::detail::shared_count" = type { ptr }
%"class.QuantLib::Observable" = type { ptr, %"class.std::set.0" }
%"class.QuantLib::Observer" = type { ptr, %"class.std::set" }
%"class.QuantLib::IrregularSwap" = type { %"class.QuantLib::Swap.base", i32, double, double, %"class.QuantLib::Observable", %"class.QuantLib::Observer" }
%"class.QuantLib::Swap.base" = type { %"class.QuantLib::Instrument.base", %"class.std::vector.49", %"class.std::vector.35", %"class.std::vector.35", %"class.std::vector.35", %"class.std::vector.35", %"class.std::vector.35", double }
%"class.QuantLib::Instrument.base" = type { %"class.QuantLib::LazyObject.base", double, double, %"class.QuantLib::Date", %"class.std::map.18", %"class.boost::shared_ptr.24" }
%"class.QuantLib::LazyObject.base" = type <{ ptr, i8, i8, i8, i8 }>
%"class.QuantLib::Date" = type { i64 }
%"class.std::map.18" = type { %"class.std::_Rb_tree.19" }
%"class.std::_Rb_tree.19" = type { %"struct.std::_Rb_tree<std::__cxx11::basic_string<char>, std::pair<const std::__cxx11::basic_string<char>, boost::any>, std::_Select1st<std::pair<const std::__cxx11::basic_string<char>, boost::any>>, std::less<std::__cxx11::basic_string<char>>>::_Rb_tree_impl" }
%"struct.std::_Rb_tree<std::__cxx11::basic_string<char>, std::pair<const std::__cxx11::basic_string<char>, boost::any>, std::_Select1st<std::pair<const std::__cxx11::basic_string<char>, boost::any>>, std::less<std::__cxx11::basic_string<char>>>::_Rb_tree_impl" = type { [8 x i8], %"struct.std::_Rb_tree_header" }
%"class.boost::shared_ptr.24" = type { ptr, %"class.boost::detail::shared_count" }
%"class.std::vector.49" = type { %"struct.std::_Vector_base.50" }
%"struct.std::_Vector_base.50" = type { %"struct.std::_Vector_base<std::vector<boost::shared_ptr<QuantLib::CashFlow>>, std::allocator<std::vector<boost::shared_ptr<QuantLib::CashFlow>>>>::_Vector_impl" }
%"struct.std::_Vector_base<std::vector<boost::shared_ptr<QuantLib::CashFlow>>, std::allocator<std::vector<boost::shared_ptr<QuantLib::CashFlow>>>>::_Vector_impl" = type { %"struct.std::_Vector_base<std::vector<boost::shared_ptr<QuantLib::CashFlow>>, std::allocator<std::vector<boost::shared_ptr<QuantLib::CashFlow>>>>::_Vector_impl_data" }
%"struct.std::_Vector_base<std::vector<boost::shared_ptr<QuantLib::CashFlow>>, std::allocator<std::vector<boost::shared_ptr<QuantLib::CashFlow>>>>::_Vector_impl_data" = type { ptr, ptr, ptr }
%"class.std::vector.35" = type { %"struct.std::_Vector_base.36" }
%"struct.std::_Vector_base.36" = type { %"struct.std::_Vector_base<double, std::allocator<double>>::_Vector_impl" }
%"struct.std::_Vector_base<double, std::allocator<double>>::_Vector_impl" = type { %"struct.std::_Vector_base<double, std::allocator<double>>::_Vector_impl_data" }
%"struct.std::_Vector_base<double, std::allocator<double>>::_Vector_impl_data" = type { ptr, ptr, ptr }
%"class.QuantLib::Swap" = type { %"class.QuantLib::Instrument.base", %"class.std::vector.49", %"class.std::vector.35", %"class.std::vector.35", %"class.std::vector.35", %"class.std::vector.35", %"class.std::vector.35", double, %"class.QuantLib::Observable", %"class.QuantLib::Observer" }
%"class.QuantLib::Null" = type { i8 }
%"class.QuantLib::IrregularSwap::results" = type { %"class.QuantLib::Swap::results", double, double }
%"class.QuantLib::Swap::results" = type { %"class.QuantLib::Instrument::results", %"class.std::vector.35", %"class.std::vector.35", %"class.std::vector.35", %"class.std::vector.35", double }
%"class.QuantLib::Instrument::results" = type { %"class.QuantLib::PricingEngine::results", double, double, %"class.QuantLib::Date", %"class.std::map.18" }
%"class.QuantLib::PricingEngine::results" = type { ptr }

@_ZTIN8QuantLib13PricingEngine7resultsE = linkonce_odr constant { ptr, ptr } { ptr getelementptr inbounds (ptr, ptr @_ZTVN10__cxxabiv117__class_type_infoE, i64 2), ptr @_ZTSN8QuantLib13PricingEngine7resultsE }, comdat, align 8
@_ZTIN8QuantLib13IrregularSwap7resultsE = constant { ptr, ptr, ptr } { ptr getelementptr inbounds (ptr, ptr @_ZTVN10__cxxabiv120__si_class_type_infoE, i64 2), ptr @_ZTSN8QuantLib13IrregularSwap7resultsE, ptr @_ZTIN8QuantLib4Swap7resultsE }, align 8

; Function Attrs: mustprogress nounwind uwtable
define linkonce_odr noundef float @_ZNSt14numeric_limitsIfE3maxEv() #1 comdat align 2 {
entry:
  ret float 0x47EFFFFFE0000000
}

; Function Attrs: mustprogress nounwind uwtable
define linkonce_odr noundef float @_ZN8QuantLib6detail17FloatingPointNullILb1EE9nullValueEv() #1 comdat align 2 {
entry:
  %call = call noundef float @_ZNSt14numeric_limitsIfE3maxEv() #15
  ret float %call
}

; Function Attrs: mustprogress nounwind uwtable
define linkonce_odr noundef nonnull align 8 dereferenceable(8) ptr @_ZNSt6vectorIdSaIdEEixEm(ptr noundef nonnull align 8 dereferenceable(24) %this, i64 noundef %__n) #1 comdat align 2 {
entry:
  %this.addr = alloca ptr, align 8
  %__n.addr = alloca i64, align 8
  store ptr %this, ptr %this.addr, align 8, !tbaa !3
  store i64 %__n, ptr %__n.addr, align 8, !tbaa !54
  %this1 = load ptr, ptr %this.addr, align 8
  %_M_impl = getelementptr inbounds nuw %"struct.std::_Vector_base.36", ptr %this1, i32 0, i32 0
  %_M_start = getelementptr inbounds nuw %"struct.std::_Vector_base<double, std::allocator<double>>::_Vector_impl_data", ptr %_M_impl, i32 0, i32 0
  %0 = load ptr, ptr %_M_start, align 8, !tbaa !55
  %1 = load i64, ptr %__n.addr, align 8, !tbaa !54
  %add.ptr = getelementptr inbounds nuw double, ptr %0, i64 %1
  ret ptr %add.ptr
}

; Function Attrs: mustprogress uwtable
define linkonce_odr noundef double @_ZNK8QuantLib4NullIdEcvdEv(ptr noundef nonnull align 1 dereferenceable(1) %this) #2 comdat align 2 {
entry:
  %this.addr = alloca ptr, align 8
  store ptr %this, ptr %this.addr, align 8, !tbaa !3
  %call = call noundef float @_ZN8QuantLib6detail17FloatingPointNullILb1EE9nullValueEv()
  %conv = fpext float %call to double
  ret double %conv
}

; Function Attrs: mustprogress uwtable
define void @_ZNK8QuantLib13IrregularSwap12fetchResultsEPKNS_13PricingEngine7resultsE(ptr noundef nonnull align 8 dereferenceable(280) %this, ptr noundef %r) unnamed_addr #2 align 2 {
entry:
  %this.addr = alloca ptr, align 8
  %r.addr = alloca ptr, align 8
  %results = alloca ptr, align 8
  %ref.tmp = alloca %"class.QuantLib::Null", align 1
  %ref.tmp3 = alloca %"class.QuantLib::Null", align 1
  %ref.tmp7 = alloca %"class.QuantLib::Null", align 1
  %ref.tmp12 = alloca %"class.QuantLib::Null", align 1
  %ref.tmp20 = alloca %"class.QuantLib::Null", align 1
  %ref.tmp26 = alloca %"class.QuantLib::Null", align 1
  store ptr %this, ptr %this.addr, align 8, !tbaa !3
  store ptr %r, ptr %r.addr, align 8, !tbaa !3
  %this1 = load ptr, ptr %this.addr, align 8
  %0 = load ptr, ptr %r.addr, align 8, !tbaa !3
  call void @_ZNK8QuantLib4Swap12fetchResultsEPKNS_13PricingEngine7resultsE(ptr noundef nonnull align 8 dereferenceable(256) %this1, ptr noundef %0)
  call void @llvm.lifetime.start.p0(i64 8, ptr %results) #15
  %1 = load ptr, ptr %r.addr, align 8, !tbaa !3
  %2 = icmp eq ptr %1, null
  br i1 %2, label %dynamic_cast.null, label %dynamic_cast.notnull

dynamic_cast.notnull:                             ; preds = %entry
  %3 = call ptr @__dynamic_cast(ptr %1, ptr @_ZTIN8QuantLib13PricingEngine7resultsE, ptr @_ZTIN8QuantLib13IrregularSwap7resultsE, i64 -1) #15
  br label %dynamic_cast.end

dynamic_cast.null:                                ; preds = %entry
  br label %dynamic_cast.end

dynamic_cast.end:                                 ; preds = %dynamic_cast.null, %dynamic_cast.notnull
  %4 = phi ptr [ %3, %dynamic_cast.notnull ], [ null, %dynamic_cast.null ]
  store ptr %4, ptr %results, align 8, !tbaa !3
  %5 = load ptr, ptr %results, align 8, !tbaa !3
  %cmp = icmp ne ptr %5, null
  br i1 %cmp, label %if.then, label %if.else

if.then:                                          ; preds = %dynamic_cast.end
  %6 = load ptr, ptr %results, align 8, !tbaa !3
  %fairRate = getelementptr inbounds nuw %"class.QuantLib::IrregularSwap::results", ptr %6, i32 0, i32 1
  %7 = load double, ptr %fairRate, align 8, !tbaa !99
  %fairRate_ = getelementptr inbounds nuw %"class.QuantLib::IrregularSwap", ptr %this1, i32 0, i32 2
  store double %7, ptr %fairRate_, align 8, !tbaa !97
  %8 = load ptr, ptr %results, align 8, !tbaa !3
  %fairSpread = getelementptr inbounds nuw %"class.QuantLib::IrregularSwap::results", ptr %8, i32 0, i32 2
  %9 = load double, ptr %fairSpread, align 8, !tbaa !103
  %fairSpread_ = getelementptr inbounds nuw %"class.QuantLib::IrregularSwap", ptr %this1, i32 0, i32 3
  store double %9, ptr %fairSpread_, align 8, !tbaa !98
  br label %if.end

if.else:                                          ; preds = %dynamic_cast.end
  call void @llvm.lifetime.start.p0(i64 1, ptr %ref.tmp) #15
  %call = call noundef double @_ZNK8QuantLib4NullIdEcvdEv(ptr noundef nonnull align 1 dereferenceable(1) %ref.tmp)
  %fairRate_2 = getelementptr inbounds nuw %"class.QuantLib::IrregularSwap", ptr %this1, i32 0, i32 2
  store double %call, ptr %fairRate_2, align 8, !tbaa !97
  call void @llvm.lifetime.end.p0(i64 1, ptr %ref.tmp) #15
  call void @llvm.lifetime.start.p0(i64 1, ptr %ref.tmp3) #15
  %call4 = call noundef double @_ZNK8QuantLib4NullIdEcvdEv(ptr noundef nonnull align 1 dereferenceable(1) %ref.tmp3)
  %fairSpread_5 = getelementptr inbounds nuw %"class.QuantLib::IrregularSwap", ptr %this1, i32 0, i32 3
  store double %call4, ptr %fairSpread_5, align 8, !tbaa !98
  call void @llvm.lifetime.end.p0(i64 1, ptr %ref.tmp3) #15
  br label %if.end

if.end:                                           ; preds = %if.else, %if.then
  %fairRate_6 = getelementptr inbounds nuw %"class.QuantLib::IrregularSwap", ptr %this1, i32 0, i32 2
  %10 = load double, ptr %fairRate_6, align 8, !tbaa !97
  call void @llvm.lifetime.start.p0(i64 1, ptr %ref.tmp7) #15
  %call8 = call noundef double @_ZNK8QuantLib4NullIdEcvdEv(ptr noundef nonnull align 1 dereferenceable(1) %ref.tmp7)
  %cmp9 = fcmp oeq double %10, %call8
  call void @llvm.lifetime.end.p0(i64 1, ptr %ref.tmp7) #15
  br i1 %cmp9, label %if.then10, label %if.end18

if.then10:                                        ; preds = %if.end
  %legBPS_ = getelementptr inbounds nuw %"class.QuantLib::Swap", ptr %this1, i32 0, i32 4
  %call11 = call noundef nonnull align 8 dereferenceable(8) ptr @_ZNSt6vectorIdSaIdEEixEm(ptr noundef nonnull align 8 dereferenceable(24) %legBPS_, i64 noundef 0) #15
  %11 = load double, ptr %call11, align 8, !tbaa !50
  call void @llvm.lifetime.start.p0(i64 1, ptr %ref.tmp12) #15
  %call13 = call noundef double @_ZNK8QuantLib4NullIdEcvdEv(ptr noundef nonnull align 1 dereferenceable(1) %ref.tmp12)
  %cmp14 = fcmp une double %11, %call13
  call void @llvm.lifetime.end.p0(i64 1, ptr %ref.tmp12) #15
  br i1 %cmp14, label %if.then15, label %if.end17

if.then15:                                        ; preds = %if.then10
  %fairRate_16 = getelementptr inbounds nuw %"class.QuantLib::IrregularSwap", ptr %this1, i32 0, i32 2
  store double 0.000000e+00, ptr %fairRate_16, align 8, !tbaa !97
  br label %if.end17

if.end17:                                         ; preds = %if.then15, %if.then10
  br label %if.end18

if.end18:                                         ; preds = %if.end17, %if.end
  %fairSpread_19 = getelementptr inbounds nuw %"class.QuantLib::IrregularSwap", ptr %this1, i32 0, i32 3
  %12 = load double, ptr %fairSpread_19, align 8, !tbaa !98
  call void @llvm.lifetime.start.p0(i64 1, ptr %ref.tmp20) #15
  %call21 = call noundef double @_ZNK8QuantLib4NullIdEcvdEv(ptr noundef nonnull align 1 dereferenceable(1) %ref.tmp20)
  %cmp22 = fcmp oeq double %12, %call21
  call void @llvm.lifetime.end.p0(i64 1, ptr %ref.tmp20) #15
  br i1 %cmp22, label %if.then23, label %if.end32

if.then23:                                        ; preds = %if.end18
  %legBPS_24 = getelementptr inbounds nuw %"class.QuantLib::Swap", ptr %this1, i32 0, i32 4
  %call25 = call noundef nonnull align 8 dereferenceable(8) ptr @_ZNSt6vectorIdSaIdEEixEm(ptr noundef nonnull align 8 dereferenceable(24) %legBPS_24, i64 noundef 1) #15
  %13 = load double, ptr %call25, align 8, !tbaa !50
  call void @llvm.lifetime.start.p0(i64 1, ptr %ref.tmp26) #15
  %call27 = call noundef double @_ZNK8QuantLib4NullIdEcvdEv(ptr noundef nonnull align 1 dereferenceable(1) %ref.tmp26)
  %cmp28 = fcmp une double %13, %call27
  call void @llvm.lifetime.end.p0(i64 1, ptr %ref.tmp26) #15
  br i1 %cmp28, label %if.then29, label %if.end31

if.then29:                                        ; preds = %if.then23
  %fairSpread_30 = getelementptr inbounds nuw %"class.QuantLib::IrregularSwap", ptr %this1, i32 0, i32 3
  store double 0.000000e+00, ptr %fairSpread_30, align 8, !tbaa !98
  br label %if.end31

if.end31:                                         ; preds = %if.then29, %if.then23
  br label %if.end32

if.end32:                                         ; preds = %if.end31, %if.end18
  call void @llvm.lifetime.end.p0(i64 8, ptr %results) #15
  ret void
}