; Function Attrs: mustprogress uwtable
define void @_ZNK8QuantLib13IrregularSwap12fetchResultsEPKNS_13PricingEngine7resultsE(ptr noundef nonnull align 8 dereferenceable(280) %this, ptr noundef %r) unnamed_addr #8 align 2 {
entry:
  tail call void @_ZNK8QuantLib4Swap12fetchResultsEPKNS_13PricingEngine7resultsE(ptr noundef nonnull align 8 dereferenceable(256) %this, ptr noundef %r)
  %0 = icmp eq ptr %r, null
  br i1 %0, label %if.then10.thread, label %dynamic_cast.end

dynamic_cast.end:                                 ; preds = %entry
  %1 = tail call ptr @__dynamic_cast(ptr nonnull %r, ptr nonnull @_ZTIN8QuantLib13PricingEngine7resultsE, ptr nonnull @_ZTIN8QuantLib13IrregularSwap7resultsE, i64 -1) #27
  %cmp.not = icmp eq ptr %1, null
  br i1 %cmp.not, label %if.then10.thread, label %if.end

if.end:                                           ; preds = %dynamic_cast.end
  %fairRate = getelementptr inbounds nuw i8, ptr %1, i64 184
  %2 = load double, ptr %fairRate, align 8, !tbaa !128
  %fairRate_ = getelementptr inbounds nuw i8, ptr %this, i64 264
  store double %2, ptr %fairRate_, align 8, !tbaa !126
  %fairSpread = getelementptr inbounds nuw i8, ptr %1, i64 192
  %3 = load double, ptr %fairSpread, align 8, !tbaa !132
  %fairSpread_ = getelementptr inbounds nuw i8, ptr %this, i64 272
  store double %3, ptr %fairSpread_, align 8, !tbaa !127
  %4 = fcmp oeq double %2, 0x47EFFFFFE0000000
  %5 = fcmp oeq double %3, 0x47EFFFFFE0000000
  %fairRate_6 = getelementptr inbounds nuw i8, ptr %this, i64 264
  br i1 %4, label %if.then10, label %if.end18

if.then10:                                        ; preds = %if.end
  %legBPS_ = getelementptr inbounds nuw i8, ptr %this, i64 176
  %6 = load ptr, ptr %legBPS_, align 8, !tbaa !65
  %7 = load double, ptr %6, align 8, !tbaa !66
  %cmp14 = fcmp une double %7, 0x47EFFFFFE0000000
  br i1 %cmp14, label %if.then15, label %if.end18

if.then10.thread:                                 ; preds = %entry, %dynamic_cast.end
  %fairRate_2 = getelementptr inbounds nuw i8, ptr %this, i64 264
  store double 0x47EFFFFFE0000000, ptr %fairRate_2, align 8, !tbaa !126
  %fairSpread_5 = getelementptr inbounds nuw i8, ptr %this, i64 272
  store double 0x47EFFFFFE0000000, ptr %fairSpread_5, align 8, !tbaa !127
  %legBPS_15 = getelementptr inbounds nuw i8, ptr %this, i64 176
  %8 = load ptr, ptr %legBPS_15, align 8, !tbaa !65
  %9 = load double, ptr %8, align 8, !tbaa !66
  %cmp1416 = fcmp une double %9, 0x47EFFFFFE0000000
  br i1 %cmp1416, label %if.then15.thread, label %if.then23

if.then15.thread:                                 ; preds = %if.then10.thread
  %fairRate_67 = getelementptr inbounds nuw i8, ptr %this, i64 264
  store double 0.000000e+00, ptr %fairRate_67, align 8, !tbaa !126
  br label %if.then23

if.then15:                                        ; preds = %if.then10
  store double 0.000000e+00, ptr %fairRate_6, align 8, !tbaa !126
  br i1 %5, label %if.then23, label %if.end32

if.end18:                                         ; preds = %if.then10, %if.end
  br i1 %5, label %if.then23, label %if.end32

if.then23:                                        ; preds = %if.then10.thread, %if.then15.thread, %if.then15, %if.end18
  %legBPS_24 = getelementptr inbounds nuw i8, ptr %this, i64 176
  %10 = load ptr, ptr %legBPS_24, align 8, !tbaa !65
  %add.ptr.i = getelementptr inbounds nuw i8, ptr %10, i64 8
  %11 = load double, ptr %add.ptr.i, align 8, !tbaa !66
  %cmp28 = fcmp une double %11, 0x47EFFFFFE0000000
  br i1 %cmp28, label %if.then29, label %if.end32

if.then29:                                        ; preds = %if.then23
  %fairSpread_1912 = getelementptr inbounds nuw i8, ptr %this, i64 272
  store double 0.000000e+00, ptr %fairSpread_1912, align 8, !tbaa !127
  br label %if.end32

if.end32:                                         ; preds = %if.then15, %if.then23, %if.then29, %if.end18
  ret void
}